; Function Attrs: nounwind uwtable
define internal ptr @getconfig(ptr noundef readonly captures(none) %0, ptr noundef %1) #0 {
  %3 = tail call i32 @PyLong_AsInt(ptr noundef %1) #7
  %4 = icmp eq i32 %3, -1
  br i1 %4, label %5, label %.split

5:                                                ; preds = %2
  %6 = tail call ptr @PyErr_Occurred() #7
  %.not = icmp eq ptr %6, null
  br i1 %.not, label %.split, label %14

.split:                                           ; preds = %5, %2
  %.sink = phi i32 [ %3, %2 ], [ -1, %5 ]
  %7 = tail call fastcc i32 @getconfig_impl(ptr noundef %0, i32 noundef %.sink)
  %8 = icmp eq i32 %7, -1
  br i1 %8, label %9, label %11

9:                                                ; preds = %.split
  %10 = tail call ptr @PyErr_Occurred() #7
  %.not8 = icmp eq ptr %10, null
  br i1 %.not8, label %11, label %14

11:                                               ; preds = %9, %.split
  %12 = sext i32 %7 to i64
  %13 = tail call ptr @PyBool_FromLong(i64 noundef %12) #7
  br label %14

14:                                               ; preds = %9, %5, %11
  %.0 = phi ptr [ null, %5 ], [ null, %9 ], [ %13, %11 ]
  ret ptr %.0
}